; ModuleID = '28/696.c'
source_filename = "28/696.c"
target datalayout = "e-m:e-p270:32:32-p271:32:32-p272:64:64-i64:64-f80:128-n8:16:32:64-S128"
target triple = "x86_64-pc-linux-gnu"

@.str = private unnamed_addr constant [4 x i8] c"%d,\00", align 1
@.str.1 = private unnamed_addr constant [3 x i8] c"%d\00", align 1

; Function Attrs: noinline nounwind uwtable
define dso_local i32 @main() #0 {
  %1 = alloca i32, align 4
  %2 = alloca i32, align 4
  %3 = alloca i32, align 4
  %4 = alloca i32, align 4
  %5 = alloca i32, align 4
  %6 = alloca [800 x i8], align 16
  %7 = alloca [400 x [900 x i8]], align 16
  store i32 0, i32* %1, align 4
  store i32 0, i32* %2, align 4
  store i32 0, i32* %4, align 4
  %8 = getelementptr inbounds [800 x i8], [800 x i8]* %6, i64 0, i64 0
  %9 = call i32 (i8*, ...) bitcast (i32 (...)* @gets to i32 (i8*, ...)*)(i8* %8)
  store i32 0, i32* %3, align 4
  br label %10

10:                                               ; preds = %42, %0
  %11 = load i32, i32* %3, align 4
  %12 = sext i32 %11 to i64
  %13 = getelementptr inbounds [800 x i8], [800 x i8]* %6, i64 0, i64 %12
  %14 = load i8, i8* %13, align 1
  %15 = sext i8 %14 to i32
  %16 = icmp ne i32 %15, 0
  br i1 %16, label %17, label %45

17:                                               ; preds = %10
  %18 = load i32, i32* %3, align 4
  %19 = sext i32 %18 to i64
  %20 = getelementptr inbounds [800 x i8], [800 x i8]* %6, i64 0, i64 %19
  %21 = load i8, i8* %20, align 1
  %22 = sext i8 %21 to i32
  %23 = icmp eq i32 %22, 32
  br i1 %23, label %24, label %41

24:                                               ; preds = %17
  %25 = load i32, i32* %3, align 4
  %26 = sext i32 %25 to i64
  %27 = getelementptr inbounds [800 x i8], [800 x i8]* %6, i64 0, i64 %26
  store i8 0, i8* %27, align 1
  %28 = load i32, i32* %2, align 4
  %29 = sext i32 %28 to i64
  %30 = getelementptr inbounds [400 x [900 x i8]], [400 x [900 x i8]]* %7, i64 0, i64 %29
  %31 = getelementptr inbounds [900 x i8], [900 x i8]* %30, i64 0, i64 0
  %32 = getelementptr inbounds [800 x i8], [800 x i8]* %6, i64 0, i64 0
  %33 = load i32, i32* %4, align 4
  %34 = sext i32 %33 to i64
  %35 = getelementptr inbounds i8, i8* %32, i64 %34
  %36 = call i8* @strcpy(i8* %31, i8* %35) #4
  %37 = load i32, i32* %2, align 4
  %38 = add nsw i32 %37, 1
  store i32 %38, i32* %2, align 4
  %39 = load i32, i32* %3, align 4
  %40 = add nsw i32 %39, 1
  store i32 %40, i32* %4, align 4
  br label %41

41:                                               ; preds = %24, %17
  br label %42

42:                                               ; preds = %41
  %43 = load i32, i32* %3, align 4
  %44 = add nsw i32 %43, 1
  store i32 %44, i32* %3, align 4
  br label %10

45:                                               ; preds = %10
  %46 = load i32, i32* %2, align 4
  %47 = sext i32 %46 to i64
  %48 = getelementptr inbounds [400 x [900 x i8]], [400 x [900 x i8]]* %7, i64 0, i64 %47
  %49 = getelementptr inbounds [900 x i8], [900 x i8]* %48, i64 0, i64 0
  %50 = getelementptr inbounds [800 x i8], [800 x i8]* %6, i64 0, i64 0
  %51 = load i32, i32* %4, align 4
  %52 = sext i32 %51 to i64
  %53 = getelementptr inbounds i8, i8* %50, i64 %52
  %54 = call i8* @strcpy(i8* %49, i8* %53) #4
  %55 = load i32, i32* %2, align 4
  %56 = add nsw i32 %55, 1
  store i32 %56, i32* %2, align 4
  store i32 0, i32* %3, align 4
  br label %57

57:                                               ; preds = %76, %45
  %58 = load i32, i32* %3, align 4
  %59 = load i32, i32* %2, align 4
  %60 = sub nsw i32 %59, 1
  %61 = icmp slt i32 %58, %60
  br i1 %61, label %62, label %79

62:                                               ; preds = %57
  %63 = load i32, i32* %3, align 4
  %64 = sext i32 %63 to i64
  %65 = getelementptr inbounds [400 x [900 x i8]], [400 x [900 x i8]]* %7, i64 0, i64 %64
  %66 = getelementptr inbounds [900 x i8], [900 x i8]* %65, i64 0, i64 0
  %67 = call i64 @strlen(i8* %66) #5
  %68 = trunc i64 %67 to i32
  store i32 %68, i32* %5, align 4
  %69 = load i32, i32* %5, align 4
  %70 = icmp eq i32 %69, 0
  br i1 %70, label %71, label %72

71:                                               ; preds = %62
  br label %76

72:                                               ; preds = %62
  %73 = load i32, i32* %5, align 4
  %74 = call i32 (i8*, ...) @printf(i8* getelementptr inbounds ([4 x i8], [4 x i8]* @.str, i64 0, i64 0), i32 %73)
  br label %75

75:                                               ; preds = %72
  br label %76

76:                                               ; preds = %75, %71
  %77 = load i32, i32* %3, align 4
  %78 = add nsw i32 %77, 1
  store i32 %78, i32* %3, align 4
  br label %57

79:                                               ; preds = %57
  %80 = load i32, i32* %2, align 4
  %81 = sub nsw i32 %80, 1
  %82 = sext i32 %81 to i64
  %83 = getelementptr inbounds [400 x [900 x i8]], [400 x [900 x i8]]* %7, i64 0, i64 %82
  %84 = getelementptr inbounds [900 x i8], [900 x i8]* %83, i64 0, i64 0
  %85 = call i64 @strlen(i8* %84) #5
  %86 = trunc i64 %85 to i32
  store i32 %86, i32* %5, align 4
  %87 = load i32, i32* %5, align 4
  %88 = call i32 (i8*, ...) @printf(i8* getelementptr inbounds ([3 x i8], [3 x i8]* @.str.1, i64 0, i64 0), i32 %87)
  ret i32 0
}

declare dso_local i32 @gets(...) #1

; Function Attrs: nounwind
declare dso_local i8* @strcpy(i8*, i8*) #2

; Function Attrs: nounwind readonly
declare dso_local i64 @strlen(i8*) #3

declare dso_local i32 @printf(i8*, ...) #1


!llvm.module.flags = !{!0}
!llvm.ident = !{!1}

!0 = !{i32 1, !"wchar_size", i32 4}
!1 = !{!"clang version 10.0.0-4ubuntu1 "}
