; ModuleID = 'source-C-CXX/27/696.c'
source_filename = "source-C-CXX/27/696.c"
target datalayout = "e-m:e-p270:32:32-p271:32:32-p272:64:64-i64:64-f80:128-n8:16:32:64-S128"
target triple = "x86_64-pc-linux-gnu"

@.str = private unnamed_addr constant [4 x i8] c"%d,\00", align 1
@.str.1 = private unnamed_addr constant [3 x i8] c"%d\00", align 1

; Function Attrs: nounwind sspstrong uwtable
define dso_local i32 @main() local_unnamed_addr #0 {
  %1 = alloca [800 x i8], align 16
  %2 = alloca [400 x [900 x i8]], align 16
  %3 = getelementptr inbounds [800 x i8], [800 x i8]* %1, i64 0, i64 0
  call void @llvm.lifetime.start.p0i8(i64 800, i8* nonnull %3) #6
  %4 = getelementptr inbounds [400 x [900 x i8]], [400 x [900 x i8]]* %2, i64 0, i64 0, i64 0
  call void @llvm.lifetime.start.p0i8(i64 360000, i8* nonnull %4) #6
  %5 = call i32 (i8*, ...) bitcast (i32 (...)* @gets to i32 (i8*, ...)*)(i8* nonnull %3) #6
  br label %6

6:                                                ; preds = %16, %0
  %7 = phi i64 [ %23, %16 ], [ 0, %0 ]
  %8 = phi i32 [ %22, %16 ], [ 0, %0 ]
  %9 = phi i64 [ %25, %16 ], [ 0, %0 ]
  br label %10

10:                                               ; preds = %6, %14
  %11 = phi i64 [ %15, %14 ], [ %7, %6 ]
  %12 = getelementptr inbounds [800 x i8], [800 x i8]* %1, i64 0, i64 %11
  %13 = load i8, i8* %12, align 1, !tbaa !5
  switch i8 %13, label %14 [
    i8 0, label %26
    i8 32, label %16
  ]

14:                                               ; preds = %10
  %15 = add nuw i64 %11, 1
  br label %10, !llvm.loop !8

16:                                               ; preds = %10
  %17 = getelementptr inbounds [800 x i8], [800 x i8]* %1, i64 0, i64 %11
  store i8 0, i8* %17, align 1, !tbaa !5
  %18 = zext i32 %8 to i64
  %19 = getelementptr inbounds [400 x [900 x i8]], [400 x [900 x i8]]* %2, i64 0, i64 %18, i64 0
  %20 = getelementptr inbounds [800 x i8], [800 x i8]* %1, i64 0, i64 %9
  %21 = call i8* @strcpy(i8* noundef nonnull %19, i8* noundef nonnull %20) #6
  %22 = add nuw nsw i32 %8, 1
  %23 = add nuw i64 %11, 1
  %24 = shl i64 %23, 32
  %25 = ashr exact i64 %24, 32
  br label %6, !llvm.loop !8

26:                                               ; preds = %10
  %27 = zext i32 %8 to i64
  %28 = getelementptr inbounds [400 x [900 x i8]], [400 x [900 x i8]]* %2, i64 0, i64 %27, i64 0
  %29 = getelementptr inbounds [800 x i8], [800 x i8]* %1, i64 0, i64 %9
  %30 = call i8* @strcpy(i8* noundef nonnull %28, i8* noundef nonnull %29) #6
  %31 = icmp eq i32 %8, 0
  br i1 %31, label %45, label %32

32:                                               ; preds = %26
  %33 = zext i32 %8 to i64
  br label %34

34:                                               ; preds = %32, %42
  %35 = phi i64 [ 0, %32 ], [ %43, %42 ]
  %36 = getelementptr inbounds [400 x [900 x i8]], [400 x [900 x i8]]* %2, i64 0, i64 %35, i64 0
  %37 = call i64 @strlen(i8* noundef nonnull %36) #7
  %38 = trunc i64 %37 to i32
  %39 = icmp eq i32 %38, 0
  br i1 %39, label %42, label %40

40:                                               ; preds = %34
  %41 = call i32 (i8*, ...) @printf(i8* nonnull dereferenceable(1) getelementptr inbounds ([4 x i8], [4 x i8]* @.str, i64 0, i64 0), i32 %38)
  br label %42

42:                                               ; preds = %34, %40
  %43 = add nuw nsw i64 %35, 1
  %44 = icmp eq i64 %43, %33
  br i1 %44, label %45, label %34, !llvm.loop !10

45:                                               ; preds = %42, %26
  %46 = call i64 @strlen(i8* noundef nonnull %28) #7
  %47 = trunc i64 %46 to i32
  %48 = call i32 (i8*, ...) @printf(i8* nonnull dereferenceable(1) getelementptr inbounds ([3 x i8], [3 x i8]* @.str.1, i64 0, i64 0), i32 %47)
  call void @llvm.lifetime.end.p0i8(i64 360000, i8* nonnull %4) #6
  call void @llvm.lifetime.end.p0i8(i64 800, i8* nonnull %3) #6
  ret i32 0
}

; Function Attrs: argmemonly mustprogress nofree nosync nounwind willreturn
declare void @llvm.lifetime.start.p0i8(i64 immarg, i8* nocapture) #1

declare i32 @gets(...) local_unnamed_addr #2

; Function Attrs: argmemonly mustprogress nofree nounwind willreturn
declare i8* @strcpy(i8* noalias returned writeonly, i8* noalias nocapture readonly) local_unnamed_addr #3

; Function Attrs: argmemonly mustprogress nofree nounwind readonly willreturn
declare i64 @strlen(i8* nocapture) local_unnamed_addr #4

; Function Attrs: nofree nounwind
declare noundef i32 @printf(i8* nocapture noundef readonly, ...) local_unnamed_addr #5

; Function Attrs: argmemonly mustprogress nofree nosync nounwind willreturn
declare void @llvm.lifetime.end.p0i8(i64 immarg, i8* nocapture) #1


!llvm.module.flags = !{!0, !1, !2, !3}
!llvm.ident = !{!4}

!0 = !{i32 1, !"wchar_size", i32 4}
!1 = !{i32 7, !"PIC Level", i32 2}
!2 = !{i32 7, !"PIE Level", i32 2}
!3 = !{i32 7, !"uwtable", i32 1}
!4 = !{!"clang version 13.0.0"}
!5 = !{!6, !6, i64 0}
!6 = !{!"omnipotent char", !7, i64 0}
!7 = !{!"Simple C/C++ TBAA"}
!8 = distinct !{!8, !9}
!9 = !{!"llvm.loop.mustprogress"}
!10 = distinct !{!10, !9}
